target datalayout = "e-m:e-p270:32:32-p271:32:32-p272:64:64-i64:64-i128:128-f80:128-n8:16:32:64-S128"
target triple = "x86_64-pc-linux-gnu"

%struct.lv_color32_t = type { i8, i8, i8, i8 }

; Function Attrs: inlinehint nounwind uwtable
define internal void @lv_memzero(ptr noundef %0, i64 noundef %1) #4 {
  %3 = alloca ptr, align 8
  %4 = alloca i64, align 8
  store ptr %0, ptr %3, align 8, !tbaa !3
  store i64 %1, ptr %4, align 8, !tbaa !26
  %5 = load ptr, ptr %3, align 8, !tbaa !3
  %6 = load i64, ptr %4, align 8, !tbaa !26
  call void @lv_memset(ptr noundef %5, i8 noundef zeroext 0, i64 noundef %6)
  ret void
}

; Function Attrs: nounwind uwtable
define void @lv_color_premultiply(ptr noundef %0) #0 {
  %2 = alloca ptr, align 8
  store ptr %0, ptr %2, align 8, !tbaa !3
  %3 = load ptr, ptr %2, align 8, !tbaa !3
  %4 = getelementptr inbounds nuw %struct.lv_color32_t, ptr %3, i32 0, i32 3
  %5 = load i8, ptr %4, align 1, !tbaa !19
  %6 = zext i8 %5 to i32
  %7 = icmp eq i32 %6, 255
  br i1 %7, label %8, label %9

8:                                                ; preds = %1
  br label %57

9:                                                ; preds = %1
  %10 = load ptr, ptr %2, align 8, !tbaa !3
  %11 = getelementptr inbounds nuw %struct.lv_color32_t, ptr %10, i32 0, i32 3
  %12 = load i8, ptr %11, align 1, !tbaa !19
  %13 = zext i8 %12 to i32
  %14 = icmp eq i32 %13, 0
  br i1 %14, label %15, label %17

15:                                               ; preds = %9
  %16 = load ptr, ptr %2, align 8, !tbaa !3
  call void @lv_memzero(ptr noundef %16, i64 noundef 4)
  br label %57

17:                                               ; preds = %9
  %18 = load ptr, ptr %2, align 8, !tbaa !3
  %19 = getelementptr inbounds nuw %struct.lv_color32_t, ptr %18, i32 0, i32 2
  %20 = load i8, ptr %19, align 1, !tbaa !13
  %21 = zext i8 %20 to i32
  %22 = load ptr, ptr %2, align 8, !tbaa !3
  %23 = getelementptr inbounds nuw %struct.lv_color32_t, ptr %22, i32 0, i32 3
  %24 = load i8, ptr %23, align 1, !tbaa !19
  %25 = zext i8 %24 to i32
  %26 = mul nsw i32 %21, %25
  %27 = ashr i32 %26, 8
  %28 = trunc i32 %27 to i8
  %29 = load ptr, ptr %2, align 8, !tbaa !3
  %30 = getelementptr inbounds nuw %struct.lv_color32_t, ptr %29, i32 0, i32 2
  store i8 %28, ptr %30, align 1, !tbaa !13
  %31 = load ptr, ptr %2, align 8, !tbaa !3
  %32 = getelementptr inbounds nuw %struct.lv_color32_t, ptr %31, i32 0, i32 1
  %33 = load i8, ptr %32, align 1, !tbaa !16
  %34 = zext i8 %33 to i32
  %35 = load ptr, ptr %2, align 8, !tbaa !3
  %36 = getelementptr inbounds nuw %struct.lv_color32_t, ptr %35, i32 0, i32 3
  %37 = load i8, ptr %36, align 1, !tbaa !19
  %38 = zext i8 %37 to i32
  %39 = mul nsw i32 %34, %38
  %40 = ashr i32 %39, 8
  %41 = trunc i32 %40 to i8
  %42 = load ptr, ptr %2, align 8, !tbaa !3
  %43 = getelementptr inbounds nuw %struct.lv_color32_t, ptr %42, i32 0, i32 1
  store i8 %41, ptr %43, align 1, !tbaa !16
  %44 = load ptr, ptr %2, align 8, !tbaa !3
  %45 = getelementptr inbounds nuw %struct.lv_color32_t, ptr %44, i32 0, i32 0
  %46 = load i8, ptr %45, align 1, !tbaa !18
  %47 = zext i8 %46 to i32
  %48 = load ptr, ptr %2, align 8, !tbaa !3
  %49 = getelementptr inbounds nuw %struct.lv_color32_t, ptr %48, i32 0, i32 3
  %50 = load i8, ptr %49, align 1, !tbaa !19
  %51 = zext i8 %50 to i32
  %52 = mul nsw i32 %47, %51
  %53 = ashr i32 %52, 8
  %54 = trunc i32 %53 to i8
  %55 = load ptr, ptr %2, align 8, !tbaa !3
  %56 = getelementptr inbounds nuw %struct.lv_color32_t, ptr %55, i32 0, i32 0
  store i8 %54, ptr %56, align 1, !tbaa !18
  br label %57

57:                                               ; preds = %17, %15, %8
  ret void
}