; Function Attrs: nounwind uwtable
define void @lv_color_premultiply(ptr noundef %0) local_unnamed_addr #0 {
  %2 = getelementptr inbounds nuw i8, ptr %0, i64 3
  %3 = load i8, ptr %2, align 1, !tbaa !3
  switch i8 %3, label %5 [
    i8 -1, label %24
    i8 0, label %4
  ]

4:                                                ; preds = %1
  tail call void @lv_memset(ptr noundef nonnull %0, i8 noundef zeroext 0, i64 noundef 4) #5
  br label %24

5:                                                ; preds = %1
  %6 = zext i8 %3 to i16
  %7 = getelementptr inbounds nuw i8, ptr %0, i64 2
  %8 = load i8, ptr %7, align 1, !tbaa !7
  %9 = zext i8 %8 to i16
  %10 = mul nuw i16 %9, %6
  %11 = lshr i16 %10, 8
  %12 = trunc nuw i16 %11 to i8
  store i8 %12, ptr %7, align 1, !tbaa !7
  %13 = getelementptr inbounds nuw i8, ptr %0, i64 1
  %14 = load i8, ptr %13, align 1, !tbaa !8
  %15 = zext i8 %14 to i16
  %16 = mul nuw i16 %15, %6
  %17 = lshr i16 %16, 8
  %18 = trunc nuw i16 %17 to i8
  store i8 %18, ptr %13, align 1, !tbaa !8
  %19 = load i8, ptr %0, align 1, !tbaa !9
  %20 = zext i8 %19 to i16
  %21 = mul nuw i16 %20, %6
  %22 = lshr i16 %21, 8
  %23 = trunc nuw i16 %22 to i8
  store i8 %23, ptr %0, align 1, !tbaa !9
  br label %24

24:                                               ; preds = %1, %5, %4
  ret void
}